	.file	"numeri.c"
	.option nopic
	.attribute arch, "rv32i2p1_m2p0_a2p1_c2p0_zicsr2p0"
	.attribute unaligned_access, 0
	.attribute stack_align, 16
	.text
.Ltext0:
	.cfi_sections	.debug_frame
	.file 0 "/home/bsheafer/riscv/bonky-boot" "src/numeri.c"
	.align	1
	.globl	numeri_size
	.type	numeri_size, @function
numeri_size:
.LFB0:
	.file 1 "src/numeri.c"
	.loc 1 10 33
	.cfi_startproc
.LVL0:
	.loc 1 11 2
	.loc 1 12 2
	.loc 1 12 9
	.loc 1 11 11 is_stmt 0
	li	a5,255
	j	.L4
.LVL1:
.L2:
	.loc 1 16 12
	addi	a5,a5,-1
.LVL2:
	.loc 1 12 9 is_stmt 1
	beq	a5,zero,.L14
.LVL3:
.L4:
	.loc 1 13 3
	.loc 1 16 3
	.loc 1 13 14 is_stmt 0
	add	a4,a0,a5
	lbu	a4,4(a4)
	.loc 1 13 6
	beq	a4,zero,.L2
	.loc 1 24 19
	slli	a5,a5,3
.LVL4:
	.loc 1 21 8 is_stmt 1
	.loc 1 21 16 is_stmt 0
	mv	a0,a4
.LVL5:
.L3:
	.loc 1 11 11
	li	a4,0
.LVL6:
.L6:
	.loc 1 22 3 is_stmt 1
	.loc 1 22 11 is_stmt 0
	addi	a4,a4,1
.LVL7:
	.loc 1 21 8 is_stmt 1
	.loc 1 21 28 is_stmt 0
	sra	a3,a0,a4
	.loc 1 21 8
	bne	a3,zero,.L6
	.loc 1 24 23
	add	a0,a5,a4
	.loc 1 24 2 is_stmt 1
	.loc 1 25 1 is_stmt 0
	ret
.LVL8:
.L14:
	.loc 1 21 8 is_stmt 1
	.loc 1 21 16 is_stmt 0
	lbu	a0,4(a0)
.LVL9:
	.loc 1 21 8
	bne	a0,zero,.L3
	.loc 1 25 1
	ret
	.cfi_endproc
.LFE0:
	.size	numeri_size, .-numeri_size
	.align	1
	.globl	numeri_is_bigger
	.type	numeri_is_bigger, @function
numeri_is_bigger:
.LFB1:
	.loc 1 27 45 is_stmt 1
	.cfi_startproc
.LVL10:
	.loc 1 28 2
.LBB69:
.LBB70:
	.loc 1 11 2
	.loc 1 12 2
	.loc 1 12 9
	.loc 1 11 11 is_stmt 0
	li	a4,255
	j	.L18
.LVL11:
.L16:
	.loc 1 16 12
	addi	a4,a4,-1
.LVL12:
	.loc 1 12 9 is_stmt 1
	beq	a4,zero,.L41
.LVL13:
.L18:
	.loc 1 13 3
	.loc 1 16 3
	.loc 1 13 14 is_stmt 0
	add	a5,a0,a4
	lbu	a5,4(a5)
	.loc 1 13 6
	beq	a5,zero,.L16
	.loc 1 24 19
	slli	a4,a4,3
.LVL14:
	.loc 1 21 8 is_stmt 1
.L17:
	.loc 1 11 11 is_stmt 0
	li	a3,0
.LVL15:
.L20:
	.loc 1 22 3 is_stmt 1
	.loc 1 22 11 is_stmt 0
	addi	a3,a3,1
.LVL16:
	.loc 1 21 8 is_stmt 1
	.loc 1 21 28 is_stmt 0
	sra	a2,a5,a3
	.loc 1 21 8
	bne	a2,zero,.L20
	.loc 1 24 23
	add	a5,a3,a4
.LVL17:
.L19:
	.loc 1 24 2 is_stmt 1
.LBE70:
.LBE69:
	.loc 1 29 2
.LBB72:
.LBB73:
	.loc 1 11 2
	.loc 1 12 2
	.loc 1 12 9
	.loc 1 11 11 is_stmt 0
	li	a4,255
	j	.L23
.LVL18:
.L21:
	.loc 1 16 12
	addi	a4,a4,-1
.LVL19:
	.loc 1 12 9 is_stmt 1
	beq	a4,zero,.L42
.LVL20:
.L23:
	.loc 1 13 3
	.loc 1 16 3
	.loc 1 13 14 is_stmt 0
	add	a3,a1,a4
	lbu	a3,4(a3)
	.loc 1 13 6
	beq	a3,zero,.L21
	.loc 1 24 19
	slli	a4,a4,3
.LVL21:
	.loc 1 21 8 is_stmt 1
.L22:
	.loc 1 11 11 is_stmt 0
	li	a2,0
.LVL22:
.L25:
	.loc 1 22 3 is_stmt 1
	.loc 1 22 11 is_stmt 0
	addi	a2,a2,1
.LVL23:
	.loc 1 21 8 is_stmt 1
	.loc 1 21 28 is_stmt 0
	sra	a6,a3,a2
	.loc 1 21 8
	bne	a6,zero,.L25
	.loc 1 24 23
	add	a3,a4,a2
.LVL24:
.L24:
	.loc 1 24 2 is_stmt 1
.LBE73:
.LBE72:
	.loc 1 32 2
	.loc 1 32 5 is_stmt 0
	beq	a5,a3,.L26
	.loc 1 33 3 is_stmt 1
	.loc 1 33 17 is_stmt 0
	sgt	a0,a5,a3
.LVL25:
	ret
.LVL26:
.L26:
	.loc 1 37 2 is_stmt 1
	.loc 1 38 2
	.loc 1 39 2
	.loc 1 40 2
	.loc 1 40 19
	.loc 1 37 30 is_stmt 0
	srai	a5,a5,3
.LVL27:
	addi	a5,a5,2
	slli	a5,a5,2
	j	.L29
.LVL28:
.L28:
	.loc 1 40 19
	beq	a5,zero,.L43
.L29:
	.loc 1 41 3 is_stmt 1
	.loc 1 44 3
	.loc 1 40 19
	.loc 1 41 10 is_stmt 0
	add	a3,a0,a5
	.loc 1 41 28
	add	a4,a1,a5
	.loc 1 41 10
	lw	a3,0(a3)
	.loc 1 41 28
	lw	a4,0(a4)
	.loc 1 40 19
	addi	a5,a5,-4
	.loc 1 41 6
	beq	a3,a4,.L28
	.loc 1 42 4 is_stmt 1
	.loc 1 42 26 is_stmt 0
	sgt	a0,a3,a4
.LVL29:
	ret
.LVL30:
.L43:
.LVL31:
	.loc 1 46 1
	ret
.LVL32:
.L42:
.LBB75:
.LBB74:
	.loc 1 21 8 is_stmt 1
	.loc 1 21 16 is_stmt 0
	lbu	a3,4(a1)
	.loc 1 21 8
	bne	a3,zero,.L22
	j	.L24
.LVL33:
.L41:
.LBE74:
.LBE75:
.LBB76:
.LBB71:
	.loc 1 21 8 is_stmt 1
	.loc 1 21 16 is_stmt 0
	lbu	a5,4(a0)
	.loc 1 21 8
	bne	a5,zero,.L17
	j	.L19
.LBE71:
.LBE76:
	.cfi_endproc
.LFE1:
	.size	numeri_is_bigger, .-numeri_is_bigger
	.align	1
	.globl	numeri_cmp
	.type	numeri_cmp, @function
numeri_cmp:
.LFB2:
	.loc 1 49 38 is_stmt 1
	.cfi_startproc
.LVL34:
	.loc 1 50 2
	.loc 1 52 2
	.loc 1 52 9
	addi	a5,a0,259
	addi	a1,a1,259
.LVL35:
	addi	a0,a0,4
.LVL36:
	j	.L48
.LVL37:
.L45:
	beq	a5,a0,.L50
.LVL38:
.L48:
	.loc 1 53 3
	.loc 1 56 3
	.loc 1 52 9
	.loc 1 53 13 is_stmt 0
	lbu	a4,0(a5)
	.loc 1 53 35
	lbu	a3,0(a1)
	.loc 1 52 9
	addi	a5,a5,-1
.LVL39:
	addi	a1,a1,-1
	.loc 1 53 5
	beq	a4,a3,.L45
	.loc 1 54 4 is_stmt 1
	.loc 1 54 55 is_stmt 0 discriminator 2
	sgtu	a4,a4,a3
	slli	a0,a4,1
.LVL40:
	addi	a0,a0,-1
	ret
.L50:
	.loc 1 59 9
	li	a0,0
	.loc 1 60 1
	ret
	.cfi_endproc
.LFE2:
	.size	numeri_cmp, .-numeri_cmp
	.align	1
	.globl	numeri_init
	.type	numeri_init, @function
numeri_init:
.LFB3:
	.loc 1 62 20 is_stmt 1
	.cfi_startproc
	.loc 1 64 2
.LVL41:
	.loc 1 65 2
.LBB77:
	.loc 1 65 7
	.loc 1 65 39 discriminator 1
	li	a4,-2147475456
.LBE77:
	.loc 1 64 10 is_stmt 0
	li	a5,-2147479552
.LBB78:
	.loc 1 65 39 discriminator 1
	addi	a4,a4,64
.LVL42:
.L52:
	.loc 1 66 3 is_stmt 1
	.loc 1 66 21 is_stmt 0
	sb	zero,0(a5)
	.loc 1 67 3 is_stmt 1
	.loc 1 67 14 is_stmt 0
	addi	a5,a5,260
.LVL43:
	.loc 1 65 62 is_stmt 1 discriminator 3
	.loc 1 65 39 discriminator 1
	bne	a5,a4,.L52
.LBE78:
	.loc 1 69 1 is_stmt 0
	ret
	.cfi_endproc
.LFE3:
	.size	numeri_init, .-numeri_init
	.align	1
	.globl	numeri_alloc
	.type	numeri_alloc, @function
numeri_alloc:
.LFB4:
	.loc 1 71 24 is_stmt 1
	.cfi_startproc
	.loc 1 73 2
.LVL44:
	.loc 1 74 2
.LBB80:
	.loc 1 74 7
	.loc 1 74 39 discriminator 1
	li	a4,-2147475456
.LBE80:
	.loc 1 73 10 is_stmt 0
	li	a0,-2147479552
.LBB81:
	.loc 1 74 39 discriminator 1
	addi	a4,a4,64
.LVL45:
.L57:
	.loc 1 75 3 is_stmt 1
	.loc 1 79 3
	.loc 1 75 6 is_stmt 0
	lbu	a5,0(a0)
	beq	a5,zero,.L59
	.loc 1 79 14
	addi	a0,a0,260
.LVL46:
	.loc 1 74 62 is_stmt 1 discriminator 2
	.loc 1 74 39 discriminator 1
	bne	a0,a4,.L57
.LBE81:
	.loc 1 81 9 is_stmt 0
	li	a0,0
.LVL47:
	.loc 1 82 1
	ret
.LVL48:
.L59:
.LBB82:
	.loc 1 76 4 is_stmt 1
	.loc 1 76 22 is_stmt 0
	li	a5,1
	sb	a5,0(a0)
	.loc 1 77 4 is_stmt 1
	.loc 1 77 11 is_stmt 0
	ret
.LBE82:
	.cfi_endproc
.LFE4:
	.size	numeri_alloc, .-numeri_alloc
	.align	1
	.globl	numeri_load
	.type	numeri_load, @function
numeri_load:
.LFB5:
	.loc 1 84 50 is_stmt 1
	.cfi_startproc
.LVL49:
	.loc 1 85 2
.LBB83:
	.loc 1 87 40 is_stmt 0 discriminator 1
	srli	a2,a2,2
.LVL50:
.LBE83:
	.loc 1 86 2 is_stmt 1
	.loc 1 87 2
.LBB84:
	.loc 1 87 7
	.loc 1 87 37 discriminator 1
	beq	a2,zero,.L60
	slli	a2,a2,2
	addi	a0,a0,4
.LVL51:
	add	a4,a1,a2
.LVL52:
.L62:
	.loc 1 88 3
	.loc 1 88 22 is_stmt 0
	lw	a5,0(a1)
	.loc 1 87 37 discriminator 1
	addi	a1,a1,4
	addi	a0,a0,4
	.loc 1 88 17
	sw	a5,-4(a0)
	.loc 1 87 67 is_stmt 1 discriminator 3
	.loc 1 87 37 discriminator 1
	bne	a1,a4,.L62
.L60:
.LBE84:
	.loc 1 90 1 is_stmt 0
	ret
	.cfi_endproc
.LFE5:
	.size	numeri_load, .-numeri_load
	.align	1
	.globl	numeri_set
	.type	numeri_set, @function
numeri_set:
.LFB6:
	.loc 1 92 35 is_stmt 1
	.cfi_startproc
.LVL53:
	.loc 1 93 2
.LBB85:
.LBB86:
	.loc 1 110 2
	.loc 1 110 12 is_stmt 0
	addi	a5,a0,4
.LVL54:
	.loc 1 112 2 is_stmt 1
.LBB87:
	.loc 1 112 7
	.loc 1 112 23 discriminator 1
	addi	a4,a0,260
.LVL55:
.L68:
	.loc 1 113 3
	.loc 1 113 14 is_stmt 0
	sw	zero,0(a5)
	.loc 1 114 3 is_stmt 1
	.loc 1 114 12 is_stmt 0
	addi	a5,a5,4
.LVL56:
	.loc 1 112 61 is_stmt 1 discriminator 3
	.loc 1 112 23 discriminator 1
	bne	a5,a4,.L68
.LVL57:
.LBE87:
.LBE86:
.LBE85:
	.loc 1 94 2
	.loc 1 94 26 is_stmt 0
	sw	a1,4(a0)
	.loc 1 95 1
	ret
	.cfi_endproc
.LFE6:
	.size	numeri_set, .-numeri_set
	.align	1
	.globl	numeri_copy
	.type	numeri_copy, @function
numeri_copy:
.LFB7:
	.loc 1 97 40 is_stmt 1
	.cfi_startproc
.LVL58:
	.loc 1 98 2
	.loc 1 99 2
	.loc 1 100 2
.LBB88:
	.loc 1 100 7
	.loc 1 100 37 discriminator 1
	addi	a5,a0,4
.LVL59:
	addi	a4,a1,4
.LVL60:
	addi	a2,a0,260
.LVL61:
.L71:
	.loc 1 101 3
	.loc 1 101 22 is_stmt 0
	lw	a3,0(a5)
	.loc 1 100 37 discriminator 1
	addi	a5,a5,4
	addi	a4,a4,4
	.loc 1 101 17
	sw	a3,-4(a4)
	.loc 1 100 82 is_stmt 1 discriminator 3
	.loc 1 100 37 discriminator 1
	bne	a5,a2,.L71
.LBE88:
	.loc 1 103 1 is_stmt 0
	ret
	.cfi_endproc
.LFE7:
	.size	numeri_copy, .-numeri_copy
	.align	1
	.globl	numeri_free
	.type	numeri_free, @function
numeri_free:
.LFB8:
	.loc 1 105 29 is_stmt 1
	.cfi_startproc
.LVL62:
	.loc 1 106 2
	.loc 1 106 10 is_stmt 0
	sb	zero,0(a0)
	.loc 1 107 1
	ret
	.cfi_endproc
.LFE8:
	.size	numeri_free, .-numeri_free
	.align	1
	.globl	numeri_clean
	.type	numeri_clean, @function
numeri_clean:
.LFB9:
	.loc 1 109 30 is_stmt 1
	.cfi_startproc
.LVL63:
	.loc 1 110 2
	.loc 1 110 12 is_stmt 0
	addi	a5,a0,4
.LVL64:
	.loc 1 112 2 is_stmt 1
.LBB89:
	.loc 1 112 7
	.loc 1 112 23 discriminator 1
	addi	a4,a0,260
.LVL65:
.L75:
	.loc 1 113 3
	.loc 1 113 14 is_stmt 0
	sw	zero,0(a5)
	.loc 1 114 3 is_stmt 1
	.loc 1 114 12 is_stmt 0
	addi	a5,a5,4
.LVL66:
	.loc 1 112 61 is_stmt 1 discriminator 3
	.loc 1 112 23 discriminator 1
	bne	a5,a4,.L75
.LBE89:
	.loc 1 116 1 is_stmt 0
	ret
	.cfi_endproc
.LFE9:
	.size	numeri_clean, .-numeri_clean
	.align	1
	.globl	numeri_add
	.type	numeri_add, @function
numeri_add:
.LFB10:
	.loc 1 118 50 is_stmt 1
	.cfi_startproc
.LVL67:
	.loc 1 120 2
	.loc 1 121 2
	.loc 1 123 2
.LBB91:
	.loc 1 123 7
	.loc 1 123 37 discriminator 1
.LBE91:
	.loc 1 118 50 is_stmt 0
	li	a4,4
	.loc 1 121 11
	li	a3,0
.LBB92:
	.loc 1 123 37 discriminator 1
	li	t1,260
.LVL68:
.L78:
	.loc 1 124 3 is_stmt 1
	.loc 1 124 49 is_stmt 0
	add	a6,a1,a4
	.loc 1 124 29
	add	a5,a0,a4
	.loc 1 124 49
	lbu	a7,0(a6)
	.loc 1 124 29
	lbu	a5,0(a5)
	.loc 1 126 21
	add	a6,a2,a4
	.loc 1 123 37 discriminator 1
	addi	a4,a4,1
.LVL69:
	.loc 1 124 40
	add	a5,a5,a7
	.loc 1 124 60
	add	a5,a5,a3
.LVL70:
	.loc 1 125 3 is_stmt 1
	.loc 1 125 9 is_stmt 0
	slli	a3,a5,16
.LVL71:
	srai	a3,a3,16
	.loc 1 126 21
	sb	a5,0(a6)
	.loc 1 125 9
	srai	a3,a3,8
.LVL72:
	.loc 1 126 3 is_stmt 1
	.loc 1 123 65 discriminator 3
	.loc 1 123 37 discriminator 1
	bne	a4,t1,.L78
.LBE92:
	.loc 1 128 1 is_stmt 0
	ret
	.cfi_endproc
.LFE10:
	.size	numeri_add, .-numeri_add
	.align	1
	.globl	numeri_or
	.type	numeri_or, @function
numeri_or:
.LFB11:
	.loc 1 130 49 is_stmt 1
	.cfi_startproc
.LVL73:
	.loc 1 132 2
	.loc 1 134 2
	.loc 1 135 2
	.loc 1 136 2
	.loc 1 137 2
.LBB94:
	.loc 1 137 7
	.loc 1 137 37 discriminator 1
.LBE94:
	.loc 1 130 49 is_stmt 0
	li	a5,4
.LBB95:
	.loc 1 137 37 discriminator 1
	li	a7,260
.LVL74:
.L81:
	.loc 1 138 3 is_stmt 1
	.loc 1 138 38 is_stmt 0
	add	a3,a1,a5
	.loc 1 138 22
	add	a4,a0,a5
	.loc 1 138 33
	lw	a6,0(a3)
	lw	a4,0(a4)
	.loc 1 138 17
	add	a3,a2,a5
	.loc 1 137 37 discriminator 1
	addi	a5,a5,4
	.loc 1 138 33
	or	a4,a4,a6
	.loc 1 138 17
	sw	a4,0(a3)
	.loc 1 137 82 is_stmt 1 discriminator 3
	.loc 1 137 37 discriminator 1
	bne	a5,a7,.L81
.LBE95:
	.loc 1 140 1 is_stmt 0
	ret
	.cfi_endproc
.LFE11:
	.size	numeri_or, .-numeri_or
	.align	1
	.globl	numeri_sub
	.type	numeri_sub, @function
numeri_sub:
.LFB12:
	.loc 1 142 50 is_stmt 1
	.cfi_startproc
.LVL75:
	.loc 1 144 2
	.loc 1 145 2
	.loc 1 146 2
	.loc 1 148 2
.LBB97:
	.loc 1 148 7
	.loc 1 148 37 discriminator 1
.LBE97:
	.loc 1 142 50 is_stmt 0
	li	a4,4
	.loc 1 146 11
	li	a3,0
.LBB98:
	.loc 1 148 37 discriminator 1
	li	t1,260
.LVL76:
.L84:
	.loc 1 149 3 is_stmt 1
	.loc 1 150 30 is_stmt 0
	add	a5,a1,a4
	.loc 1 150 41
	lbu	a6,0(a5)
	.loc 1 149 30
	add	a5,a0,a4
	lbu	a5,0(a5)
.LVL77:
	.loc 1 150 3 is_stmt 1
	.loc 1 150 41 is_stmt 0
	add	a3,a3,a6
.LVL78:
	.loc 1 151 3 is_stmt 1
	.loc 1 151 21 is_stmt 0
	add	a6,a2,a4
	.loc 1 151 40
	sub	a7,a5,a3
	.loc 1 152 20
	addi	a5,a5,256
.LVL79:
	sub	a5,a5,a3
.LVL80:
	.loc 1 151 21
	sb	a7,0(a6)
.LVL81:
	.loc 1 152 3 is_stmt 1
	.loc 1 148 37 is_stmt 0 discriminator 1
	addi	a4,a4,1
.LVL82:
	.loc 1 152 10
	slti	a3,a5,256
.LVL83:
	.loc 1 148 65 is_stmt 1 discriminator 3
	.loc 1 148 37 discriminator 1
	bne	a4,t1,.L84
.LBE98:
	.loc 1 155 2
	.loc 1 156 1 is_stmt 0
	li	a0,1
.LVL84:
	ret
	.cfi_endproc
.LFE12:
	.size	numeri_sub, .-numeri_sub
	.align	1
	.globl	numeri_mul
	.type	numeri_mul, @function
numeri_mul:
.LFB13:
	.loc 1 158 50 is_stmt 1
	.cfi_startproc
.LVL85:
	addi	sp,sp,-32
	.cfi_def_cfa_offset 32
	sw	s2,20(sp)
	.cfi_offset 18, -12
.LBB127:
.LBB128:
	.loc 1 110 12 is_stmt 0
	addi	s2,a2,4
.LBE128:
.LBE127:
	.loc 1 158 50
	sw	s0,28(sp)
	sw	s1,24(sp)
	sw	s3,16(sp)
	sw	s4,12(sp)
	sw	s5,8(sp)
	sw	s6,4(sp)
	.cfi_offset 8, -4
	.cfi_offset 9, -8
	.cfi_offset 19, -16
	.cfi_offset 20, -20
	.cfi_offset 21, -24
	.cfi_offset 22, -28
	.loc 1 158 50
	mv	s0,a0
	mv	s1,a1
	.loc 1 160 2 is_stmt 1
.LVL86:
.LBB132:
.LBB131:
	.loc 1 110 2
	.loc 1 112 2
.LBB129:
	.loc 1 112 7
	.loc 1 112 23 discriminator 1
	addi	t1,a2,260
.LBE129:
	.loc 1 110 12 is_stmt 0
	mv	a5,s2
.LVL87:
.L87:
.LBB130:
	.loc 1 113 3 is_stmt 1
	.loc 1 113 14 is_stmt 0
	sw	zero,0(a5)
	.loc 1 114 3 is_stmt 1
	.loc 1 114 12 is_stmt 0
	addi	a5,a5,4
.LVL88:
	.loc 1 112 61 is_stmt 1 discriminator 3
	.loc 1 112 23 discriminator 1
	bne	a5,t1,.L87
.LBE130:
.LBE131:
.LBE132:
.LBB133:
.LBB134:
.LBB135:
	.loc 1 74 39 is_stmt 0 discriminator 1
	li	a5,-2147475456
.LVL89:
.LBE135:
	.loc 1 73 10
	li	t0,-2147479552
.LBB136:
	.loc 1 74 39 discriminator 1
	addi	a5,a5,64
.LVL90:
.L90:
	.loc 1 75 3 is_stmt 1
	.loc 1 79 3
	.loc 1 75 6 is_stmt 0
	lbu	a4,0(t0)
	beq	a4,zero,.L111
	.loc 1 79 14
	addi	t0,t0,260
.LVL91:
	.loc 1 74 62 is_stmt 1 discriminator 2
	.loc 1 74 39 discriminator 1
	bne	t0,a5,.L90
.LBE136:
	.loc 1 81 9 is_stmt 0
	li	t0,0
.LVL92:
	j	.L89
.LVL93:
.L111:
.LBB137:
	.loc 1 76 4 is_stmt 1
	.loc 1 76 22 is_stmt 0
	li	a5,1
	sb	a5,0(t0)
	.loc 1 77 4 is_stmt 1
.LVL94:
.L89:
.LBE137:
.LBE134:
.LBE133:
	.loc 1 164 2
.LBB138:
.LBB139:
	.loc 1 73 2
	.loc 1 74 2
.LBB140:
	.loc 1 74 7
	.loc 1 74 39 discriminator 1
	li	a5,-2147475456
.LBE140:
	.loc 1 73 10 is_stmt 0
	li	t5,-2147479552
.LBB141:
	.loc 1 74 39 discriminator 1
	addi	a5,a5,64
.LVL95:
.L93:
	.loc 1 75 3 is_stmt 1
	.loc 1 79 3
	.loc 1 75 6 is_stmt 0
	lbu	a4,0(t5)
	beq	a4,zero,.L112
	.loc 1 79 14
	addi	t5,t5,260
.LVL96:
	.loc 1 74 62 is_stmt 1 discriminator 2
	.loc 1 74 39 discriminator 1
	bne	t5,a5,.L93
.LBE141:
	.loc 1 81 9 is_stmt 0
	li	t5,0
.LVL97:
.L92:
.LBE139:
.LBE138:
	.loc 1 166 2 is_stmt 1
.LBB144:
	.loc 1 166 7
	.loc 1 166 31 discriminator 1
	.loc 1 166 14 is_stmt 0
	li	t2,0
	addi	a0,t0,260
.LVL98:
	addi	t6,t0,4
.LBB145:
	.loc 1 170 7
	li	t3,255
.LBB146:
.LBB147:
.LBB148:
	.loc 1 110 12
	addi	t4,t5,4
	addi	a6,t5,260
.LBE148:
.LBE147:
.LBE146:
.LBE145:
	.loc 1 166 31 discriminator 1
	li	s3,256
.LVL99:
.L100:
	.loc 1 167 3 is_stmt 1
.LBB160:
.LBB161:
	.loc 1 110 2
	.loc 1 112 2
.LBB162:
	.loc 1 112 7
	.loc 1 112 23 discriminator 1
.LBE162:
	.loc 1 110 12 is_stmt 0
	mv	a5,t6
.LVL100:
.L94:
.LBB163:
	.loc 1 113 3 is_stmt 1
	.loc 1 113 14 is_stmt 0
	sw	zero,0(a5)
	.loc 1 114 3 is_stmt 1
	.loc 1 114 12 is_stmt 0
	addi	a5,a5,4
.LVL101:
	.loc 1 112 61 is_stmt 1 discriminator 3
	.loc 1 112 23 discriminator 1
	bne	a5,a0,.L94
	mv	a7,t2
	addi	s4,t2,256
.LBE163:
.LBE161:
.LBE160:
.LBB164:
.LBB158:
	.loc 1 173 69 is_stmt 0
	sub	s6,s1,t2
	.loc 1 173 39
	add	s5,s0,t2
.LVL102:
.L98:
.LBE158:
	.loc 1 170 4 is_stmt 1
	.loc 1 170 7 is_stmt 0
	bleu	a7,t3,.L113
.LVL103:
.L95:
	.loc 1 169 57 is_stmt 1 discriminator 2
	.loc 1 169 32 discriminator 1
	addi	a7,a7,1
.LVL104:
	bne	a7,s4,.L98
	mv	a4,s2
	mv	a2,t6
.LBE164:
.LBB165:
.LBB166:
	.loc 1 121 11 is_stmt 0
	li	a3,0
.L99:
.LVL105:
.LBB167:
	.loc 1 124 3 is_stmt 1
	.loc 1 124 29 is_stmt 0
	lbu	a5,0(a4)
	.loc 1 124 49
	lbu	a1,0(a2)
	.loc 1 123 37 discriminator 1
	addi	a4,a4,1
.LVL106:
	addi	a2,a2,1
	.loc 1 124 40
	add	a5,a5,a1
	.loc 1 124 60
	add	a5,a5,a3
.LVL107:
	.loc 1 125 3 is_stmt 1
	.loc 1 125 9 is_stmt 0
	slli	a3,a5,16
.LVL108:
	srai	a3,a3,16
	.loc 1 126 21
	sb	a5,-1(a4)
	.loc 1 125 9
	srai	a3,a3,8
.LVL109:
	.loc 1 126 3 is_stmt 1
	.loc 1 123 65 discriminator 3
	.loc 1 123 37 discriminator 1
	bne	t1,a4,.L99
.LVL110:
.LBE167:
.LBE166:
.LBE165:
	.loc 1 166 56 discriminator 2
	addi	t2,t2,1
.LVL111:
	.loc 1 166 31 discriminator 1
	bne	t2,s3,.L100
.LBE144:
	.loc 1 183 2
.LVL112:
.LBB169:
.LBB170:
	.loc 1 106 2
	.loc 1 106 10 is_stmt 0
	sb	zero,0(t0)
.LVL113:
.LBE170:
.LBE169:
	.loc 1 184 2 is_stmt 1
.LBB171:
.LBB172:
	.loc 1 106 2
	.loc 1 106 10 is_stmt 0
	sb	zero,0(t5)
.LVL114:
.LBE172:
.LBE171:
	.loc 1 185 1
	lw	s0,28(sp)
	.cfi_remember_state
	.cfi_restore 8
.LVL115:
	lw	s1,24(sp)
	.cfi_restore 9
.LVL116:
	lw	s2,20(sp)
	.cfi_restore 18
	lw	s3,16(sp)
	.cfi_restore 19
	lw	s4,12(sp)
	.cfi_restore 20
.LVL117:
	lw	s5,8(sp)
	.cfi_restore 21
	lw	s6,4(sp)
	.cfi_restore 22
	addi	sp,sp,32
	.cfi_def_cfa_offset 0
	jr	ra
.LVL118:
.L113:
	.cfi_restore_state
.LBB173:
.LBB168:
.LBB159:
	.loc 1 172 5 is_stmt 1
.LBB152:
.LBB151:
	.loc 1 110 2
	.loc 1 112 2
.LBB149:
	.loc 1 112 7
	.loc 1 112 23 discriminator 1
.LBE149:
	.loc 1 110 12 is_stmt 0
	mv	a5,t4
.LVL119:
.L96:
.LBB150:
	.loc 1 113 3 is_stmt 1
	.loc 1 113 14 is_stmt 0
	sw	zero,0(a5)
	.loc 1 114 3 is_stmt 1
	.loc 1 114 12 is_stmt 0
	addi	a5,a5,4
.LVL120:
	.loc 1 112 61 is_stmt 1 discriminator 3
	.loc 1 112 23 discriminator 1
	bne	a6,a5,.L96
.LVL121:
.LBE150:
.LBE151:
.LBE152:
	.loc 1 173 5
	.loc 1 174 5
	.loc 1 173 69 is_stmt 0
	add	a5,s6,a7
	lbu	a1,4(a5)
	.loc 1 173 39
	lbu	a4,4(s5)
	.loc 1 174 45
	add	a5,t5,a7
	mv	a2,t4
	.loc 1 173 48
	mul	a1,a1,a4
.LBB153:
.LBB154:
	.loc 1 121 11
	li	a3,0
	mv	a4,t6
.LBE154:
.LBE153:
	.loc 1 174 45
	sh	a1,4(a5)
.LVL122:
	.loc 1 176 5 is_stmt 1
.LBB157:
.LBB156:
	.loc 1 120 2
	.loc 1 121 2
	.loc 1 123 2
.LBB155:
	.loc 1 123 7
	.loc 1 123 37 discriminator 1
.L97:
	.loc 1 124 3
	.loc 1 124 29 is_stmt 0
	lbu	a5,0(a2)
	.loc 1 124 49
	lbu	a1,0(a4)
	.loc 1 123 37 discriminator 1
	addi	a4,a4,1
	addi	a2,a2,1
.LVL123:
	.loc 1 124 40
	add	a5,a5,a1
	.loc 1 124 60
	add	a5,a5,a3
.LVL124:
	.loc 1 125 3 is_stmt 1
	.loc 1 125 9 is_stmt 0
	slli	a3,a5,16
.LVL125:
	srai	a3,a3,16
	.loc 1 126 21
	sb	a5,-1(a4)
	.loc 1 125 9
	srai	a3,a3,8
.LVL126:
	.loc 1 126 3 is_stmt 1
	.loc 1 123 65 discriminator 3
	.loc 1 123 37 discriminator 1
	bne	a0,a4,.L97
	j	.L95
.LVL127:
.L112:
.LBE155:
.LBE156:
.LBE157:
.LBE159:
.LBE168:
.LBE173:
.LBB174:
.LBB143:
.LBB142:
	.loc 1 76 4
	.loc 1 76 22 is_stmt 0
	li	a5,1
	sb	a5,0(t5)
	.loc 1 77 4 is_stmt 1
	.loc 1 77 11 is_stmt 0
	j	.L92
.LBE142:
.LBE143:
.LBE174:
	.cfi_endproc
.LFE13:
	.size	numeri_mul, .-numeri_mul
	.align	1
	.globl	numeri_div
	.type	numeri_div, @function
numeri_div:
.LFB16:
	.loc 1 201 50 is_stmt 1
	.cfi_startproc
.LVL128:
	.loc 1 203 2
	.loc 1 201 50 is_stmt 0
	addi	sp,sp,-48
	.cfi_def_cfa_offset 48
	sw	s2,32(sp)
	sw	s4,24(sp)
	.cfi_offset 18, -16
	.cfi_offset 20, -24
.LBB232:
.LBB233:
	.loc 1 110 12
	addi	s2,a2,4
.LBE233:
.LBE232:
	.loc 1 201 50
	mv	s4,a2
.LVL129:
.LBB238:
.LBB236:
	.loc 1 110 2 is_stmt 1
	.loc 1 112 2
.LBB234:
	.loc 1 112 7
	.loc 1 112 23 discriminator 1
.LBE234:
.LBE236:
.LBE238:
	.loc 1 201 50 is_stmt 0
	sw	s3,28(sp)
	sw	ra,44(sp)
	sw	s0,40(sp)
	sw	s1,36(sp)
	sw	s5,20(sp)
	sw	s6,16(sp)
	sw	s7,12(sp)
	sw	s8,8(sp)
	sw	s9,4(sp)
	sw	s10,0(sp)
	.cfi_offset 19, -20
	.cfi_offset 1, -4
	.cfi_offset 8, -8
	.cfi_offset 9, -12
	.cfi_offset 21, -28
	.cfi_offset 22, -32
	.cfi_offset 23, -36
	.cfi_offset 24, -40
	.cfi_offset 25, -44
	.cfi_offset 26, -48
	.loc 1 201 50
	mv	s3,a0
	mv	a2,a1
.LVL130:
	addi	s4,s4,260
.LVL131:
.LBB239:
.LBB237:
	.loc 1 110 12
	mv	a5,s2
.LVL132:
.L115:
.LBB235:
	.loc 1 113 3 is_stmt 1
	.loc 1 113 14 is_stmt 0
	sw	zero,0(a5)
	.loc 1 114 3 is_stmt 1
	.loc 1 114 12 is_stmt 0
	addi	a5,a5,4
.LVL133:
	.loc 1 112 61 is_stmt 1 discriminator 3
	.loc 1 112 23 discriminator 1
	bne	a5,s4,.L115
.LBE235:
.LBE237:
.LBE239:
.LBB240:
.LBB241:
.LBB242:
	.loc 1 74 39 is_stmt 0 discriminator 1
	li	a4,-2147475456
.LBE242:
	.loc 1 73 10
	li	s5,-2147479552
.LBB243:
	.loc 1 74 39 discriminator 1
	addi	a4,a4,64
.LVL134:
.L118:
	.loc 1 75 3 is_stmt 1
	.loc 1 79 3
	.loc 1 75 6 is_stmt 0
	lbu	a5,0(s5)
	beq	a5,zero,.L171
	.loc 1 79 14
	addi	s5,s5,260
.LVL135:
	.loc 1 74 62 is_stmt 1 discriminator 2
	.loc 1 74 39 discriminator 1
	bne	s5,a4,.L118
.LBE243:
	.loc 1 81 9 is_stmt 0
	li	s5,0
.LVL136:
.L117:
.LBE241:
.LBE240:
	.loc 1 207 2 is_stmt 1
.LBB246:
.LBB247:
	.loc 1 73 2
	.loc 1 74 2
.LBB248:
	.loc 1 74 7
	.loc 1 74 39 discriminator 1
	li	a4,-2147475456
.LBE248:
	.loc 1 73 10 is_stmt 0
	li	s8,-2147479552
.LBB249:
	.loc 1 74 39 discriminator 1
	addi	a4,a4,64
.LVL137:
.L121:
	.loc 1 75 3 is_stmt 1
	.loc 1 79 3
	.loc 1 75 6 is_stmt 0
	lbu	a5,0(s8)
	beq	a5,zero,.L172
	.loc 1 79 14
	addi	s8,s8,260
.LVL138:
	.loc 1 74 62 is_stmt 1 discriminator 2
	.loc 1 74 39 discriminator 1
	bne	s8,a4,.L121
.LBE249:
	.loc 1 81 9 is_stmt 0
	li	s8,0
.LVL139:
.L120:
.LBE247:
.LBE246:
	.loc 1 208 2 is_stmt 1
.LBB252:
.LBB253:
	.loc 1 73 2
	.loc 1 74 2
.LBB254:
	.loc 1 74 7
	.loc 1 74 39 discriminator 1
	li	a4,-2147475456
.LBE254:
	.loc 1 73 10 is_stmt 0
	li	s7,-2147479552
.LBB255:
	.loc 1 74 39 discriminator 1
	addi	a4,a4,64
.LVL140:
.L124:
	.loc 1 75 3 is_stmt 1
	.loc 1 79 3
	.loc 1 75 6 is_stmt 0
	lbu	a5,0(s7)
	beq	a5,zero,.L173
	.loc 1 79 14
	addi	s7,s7,260
.LVL141:
	.loc 1 74 62 is_stmt 1 discriminator 2
	.loc 1 74 39 discriminator 1
	bne	s7,a4,.L124
.LBE255:
	.loc 1 81 9 is_stmt 0
	li	s7,0
.LVL142:
.L123:
.LBE253:
.LBE252:
	.loc 1 209 2 is_stmt 1
.LBB258:
.LBB259:
	.loc 1 93 2
.LBB260:
.LBB261:
	.loc 1 110 2
	.loc 1 110 12 is_stmt 0
	addi	s0,s5,4
.LVL143:
	.loc 1 112 2 is_stmt 1
.LBB262:
	.loc 1 112 7
	.loc 1 112 23 discriminator 1
	addi	a4,s5,260
.LBE262:
	.loc 1 110 12 is_stmt 0
	mv	a5,s0
.LVL144:
.L125:
.LBB263:
	.loc 1 113 3 is_stmt 1
	.loc 1 113 14 is_stmt 0
	sw	zero,0(a5)
	.loc 1 114 3 is_stmt 1
	.loc 1 114 12 is_stmt 0
	addi	a5,a5,4
.LVL145:
	.loc 1 112 61 is_stmt 1 discriminator 3
	.loc 1 112 23 discriminator 1
	bne	a5,a4,.L125
.LVL146:
.LBE263:
.LBE261:
.LBE260:
	.loc 1 94 2
	.loc 1 94 26 is_stmt 0
	li	a5,1
	addi	s1,s8,4
	sw	a5,4(s5)
.LVL147:
.LBE259:
.LBE258:
	.loc 1 210 2 is_stmt 1
.LBB265:
.LBB266:
	.loc 1 98 2
	.loc 1 99 2
	.loc 1 100 2
.LBB267:
	.loc 1 100 7
	.loc 1 100 37 discriminator 1
.LBE267:
.LBE266:
.LBE265:
.LBB272:
.LBB264:
	.loc 1 94 26 is_stmt 0
	mv	a4,s1
	addi	a5,a2,4
.LVL148:
	addi	a2,a2,260
.LVL149:
.L126:
.LBE264:
.LBE272:
.LBB273:
.LBB270:
.LBB268:
	.loc 1 101 3 is_stmt 1
	.loc 1 101 22 is_stmt 0
	lw	a3,0(a5)
	.loc 1 100 37 discriminator 1
	addi	a5,a5,4
	addi	a4,a4,4
	.loc 1 101 17
	sw	a3,-4(a4)
	.loc 1 100 82 is_stmt 1 discriminator 3
	.loc 1 100 37 discriminator 1
	bne	a5,a2,.L126
.LVL150:
.LBE268:
.LBE270:
.LBE273:
	.loc 1 211 2
.LBB274:
.LBB275:
	.loc 1 98 2
	.loc 1 99 2
	.loc 1 100 2
.LBB276:
	.loc 1 100 7
	.loc 1 100 37 discriminator 1
	addi	s6,s7,4
.LVL151:
	addi	a5,s3,4
.LVL152:
	addi	a2,s3,260
.LBE276:
.LBE275:
.LBE274:
.LBB279:
.LBB271:
.LBB269:
	mv	a4,s6
.LVL153:
.L127:
.LBE269:
.LBE271:
.LBE279:
.LBB280:
.LBB278:
.LBB277:
	.loc 1 101 3
	.loc 1 101 22 is_stmt 0
	lw	a3,0(a5)
	.loc 1 100 37 discriminator 1
	addi	a5,a5,4
	addi	a4,a4,4
	.loc 1 101 17
	sw	a3,-4(a4)
	.loc 1 100 82 is_stmt 1 discriminator 3
	.loc 1 100 37 discriminator 1
	bne	a5,a2,.L127
.LVL154:
.LBE277:
.LBE278:
.LBE280:
	.loc 1 214 9
	mv	a1,s8
.LVL155:
	mv	a0,s3
.LVL156:
	addi	s10,s5,3
	addi	s9,s8,3
	call	numeri_is_bigger
.LVL157:
	.loc 1 214 9 is_stmt 0 discriminator 1
	beq	a0,zero,.L174
.L132:
	.loc 1 216 3 is_stmt 1
	.loc 1 216 6 is_stmt 0
	lb	a5,259(s8)
	blt	a5,zero,.L129
	lbu	a2,259(s5)
	addi	a5,s5,258
.L130:
.LVL158:
.LBB281:
.LBB282:
.LBB283:
	.loc 1 189 3 is_stmt 1
	mv	a3,a2
	.loc 1 189 61 is_stmt 0
	lbu	a2,0(a5)
	.loc 1 189 50
	slli	a3,a3,1
	.loc 1 188 58 discriminator 1
	addi	a5,a5,-1
.LVL159:
	.loc 1 189 50
	srli	a4,a2,7
	or	a4,a4,a3
	.loc 1 189 22
	sb	a4,2(a5)
	.loc 1 188 71 is_stmt 1 discriminator 3
.LVL160:
	.loc 1 188 58 discriminator 1
	bne	a5,s10,.L130
.LBE283:
	.loc 1 191 2
	.loc 1 191 14 is_stmt 0
	lbu	a4,4(s5)
	addi	a5,s8,258
	slli	a4,a4,1
	sb	a4,4(s5)
.LBE282:
.LBE281:
	.loc 1 222 3 is_stmt 1
.LVL161:
.LBB284:
.LBB285:
	.loc 1 188 2
.LBB286:
	.loc 1 188 7
	.loc 1 188 58 discriminator 1
	lbu	a2,259(s8)
.LVL162:
.L131:
	.loc 1 189 3
	mv	a3,a2
	.loc 1 189 61 is_stmt 0
	lbu	a2,0(a5)
	.loc 1 189 50
	slli	a3,a3,1
	.loc 1 188 58 discriminator 1
	addi	a5,a5,-1
.LVL163:
	.loc 1 189 50
	srli	a4,a2,7
	or	a4,a4,a3
	.loc 1 189 22
	sb	a4,2(a5)
	.loc 1 188 71 is_stmt 1 discriminator 3
.LVL164:
	.loc 1 188 58 discriminator 1
	bne	a5,s9,.L131
.LBE286:
	.loc 1 191 2
	.loc 1 191 14 is_stmt 0
	lbu	a5,4(s8)
.LBE285:
.LBE284:
	.loc 1 214 9
	mv	a1,s8
	mv	a0,s3
.LBB288:
.LBB287:
	.loc 1 191 14
	slli	a5,a5,1
	sb	a5,4(s8)
.LVL165:
.LBE287:
.LBE288:
	.loc 1 214 9 is_stmt 1
	call	numeri_is_bigger
.LVL166:
	.loc 1 214 9 is_stmt 0 discriminator 1
	bne	a0,zero,.L132
.L174:
.LVL167:
	.loc 1 225 2 is_stmt 1
	lbu	a3,4(s5)
	mv	a5,s0
	addi	a1,s5,259
.L134:
.LVL168:
.LBB289:
.LBB290:
.LBB291:
	.loc 1 196 3
	.loc 1 196 50 is_stmt 0
	srli	a4,a3,1
	.loc 1 196 61
	lbu	a3,1(a5)
	.loc 1 195 37 discriminator 1
	addi	a5,a5,1
.LVL169:
	.loc 1 196 50
	slli	a2,a3,7
	or	a4,a4,a2
	.loc 1 196 22
	sb	a4,-1(a5)
	.loc 1 195 71 is_stmt 1 discriminator 3
.LVL170:
	.loc 1 195 37 discriminator 1
	bne	a5,a1,.L134
.LBE291:
	.loc 1 198 2
	.loc 1 198 31 is_stmt 0
	lbu	a4,259(s5)
	addi	a1,s8,259
	mv	a5,s1
	srli	a4,a4,1
	sb	a4,259(s5)
.LBE290:
.LBE289:
	.loc 1 227 3 is_stmt 1
.LVL171:
.LBB293:
.LBB294:
	.loc 1 195 2
.LBB295:
	.loc 1 195 7
	.loc 1 195 37 discriminator 1
	lbu	a3,4(s8)
.LVL172:
.L135:
	.loc 1 196 3
	.loc 1 196 50 is_stmt 0
	srli	a4,a3,1
	.loc 1 196 61
	lbu	a3,1(a5)
	.loc 1 195 37 discriminator 1
	addi	a5,a5,1
.LVL173:
	.loc 1 196 50
	slli	a2,a3,7
	or	a4,a4,a2
	.loc 1 196 22
	sb	a4,-1(a5)
	.loc 1 195 71 is_stmt 1 discriminator 3
.LVL174:
	.loc 1 195 37 discriminator 1
	bne	a5,a1,.L135
.LBE295:
	.loc 1 198 2
	.loc 1 198 31 is_stmt 0
	lbu	a5,259(s8)
	srli	a5,a5,1
	sb	a5,259(s8)
.LVL175:
.L129:
	addi	a1,s8,259
	addi	a6,s7,260
	addi	a0,s5,259
.L136:
.LBE294:
.LBE293:
	.loc 1 231 27 is_stmt 1
.LVL176:
.LBB296:
.LBB297:
	.loc 1 11 2
	.loc 1 12 2
	.loc 1 12 9
	.loc 1 11 11 is_stmt 0
	li	a5,255
	j	.L146
.LVL177:
.L176:
	.loc 1 12 9
	beq	a5,zero,.L175
.LVL178:
.L146:
	.loc 1 13 3 is_stmt 1
	.loc 1 16 3
	.loc 1 13 14 is_stmt 0
	add	a4,s5,a5
	.loc 1 13 6
	lbu	a4,4(a4)
	.loc 1 16 12
	addi	a5,a5,-1
.LVL179:
	.loc 1 12 9 is_stmt 1
	.loc 1 13 6 is_stmt 0
	beq	a4,zero,.L176
.LVL180:
.L145:
	.loc 1 22 3 is_stmt 1
	.loc 1 21 8
	.loc 1 24 2
	addi	a5,s7,259
	mv	a4,a1
	j	.L140
.LVL181:
.L137:
.LBE297:
.LBE296:
.LBB299:
.LBB300:
	.loc 1 52 9 is_stmt 0
	beq	s6,a5,.L138
.LVL182:
.L140:
	.loc 1 53 3 is_stmt 1
	.loc 1 56 3
	.loc 1 52 9
	.loc 1 53 13 is_stmt 0
	lbu	a2,0(a5)
	.loc 1 53 35
	lbu	a3,0(a4)
	.loc 1 52 9
	addi	a5,a5,-1
.LVL183:
	addi	a4,a4,-1
	.loc 1 53 5
	beq	a2,a3,.L137
	.loc 1 54 4 is_stmt 1
	.loc 1 54 55 is_stmt 0
	bleu	a2,a3,.L143
.L138:
.LBE300:
.LBE299:
.LBB301:
.LBB292:
	.loc 1 198 31
	mv	a2,s1
	mv	a3,s6
	li	a4,0
.LVL184:
.L141:
.LBE292:
.LBE301:
.LBB302:
.LBB303:
.LBB304:
	.loc 1 149 3 is_stmt 1
	.loc 1 150 41 is_stmt 0
	lbu	a7,0(a2)
	.loc 1 149 30
	lbu	a5,0(a3)
.LVL185:
	.loc 1 150 3 is_stmt 1
	.loc 1 148 37 is_stmt 0 discriminator 1
	addi	a3,a3,1
.LVL186:
	.loc 1 150 41
	add	a4,a4,a7
.LVL187:
	.loc 1 151 3 is_stmt 1
	.loc 1 151 40 is_stmt 0
	sub	a7,a5,a4
	.loc 1 152 20
	addi	a5,a5,256
.LVL188:
	sub	a5,a5,a4
.LVL189:
	.loc 1 151 21
	sb	a7,-1(a3)
.LVL190:
	.loc 1 152 3 is_stmt 1
	.loc 1 152 10 is_stmt 0
	slti	a4,a5,256
.LVL191:
	.loc 1 148 65 is_stmt 1 discriminator 3
	.loc 1 148 37 discriminator 1
	addi	a2,a2,1
	bne	a6,a3,.L141
	mv	a5,s2
	mv	a3,s0
.LVL192:
.L142:
.LBE304:
.LBE303:
.LBE302:
.LBB305:
.LBB306:
.LBB307:
	.loc 1 138 3
	.loc 1 138 33 is_stmt 0
	lw	a4,0(a5)
	lw	a2,0(a3)
	.loc 1 137 37 discriminator 1
	addi	a5,a5,4
	addi	a3,a3,4
	.loc 1 138 33
	or	a4,a4,a2
	.loc 1 138 17
	sw	a4,-4(a5)
	.loc 1 137 82 is_stmt 1 discriminator 3
	.loc 1 137 37 discriminator 1
	bne	s4,a5,.L142
.L143:
	lbu	a3,4(s5)
	mv	a5,s0
.L139:
.LVL193:
.LBE307:
.LBE306:
.LBE305:
.LBB308:
.LBB309:
.LBB310:
	.loc 1 196 3
	.loc 1 196 50 is_stmt 0
	srli	a4,a3,1
	.loc 1 196 61
	lbu	a3,1(a5)
	.loc 1 195 37 discriminator 1
	addi	a5,a5,1
.LVL194:
	.loc 1 196 50
	slli	a2,a3,7
	or	a4,a4,a2
	.loc 1 196 22
	sb	a4,-1(a5)
	.loc 1 195 71 is_stmt 1 discriminator 3
.LVL195:
	.loc 1 195 37 discriminator 1
	bne	a0,a5,.L139
.LBE310:
	.loc 1 198 2
	.loc 1 198 31 is_stmt 0
	lbu	a4,259(s5)
	mv	a5,s1
	srli	a4,a4,1
	sb	a4,259(s5)
.LBE309:
.LBE308:
	.loc 1 238 3 is_stmt 1
.LVL196:
.LBB311:
.LBB312:
	.loc 1 195 2
.LBB313:
	.loc 1 195 7
	.loc 1 195 37 discriminator 1
	lbu	a3,4(s8)
.LVL197:
.L144:
	.loc 1 196 3
	.loc 1 196 50 is_stmt 0
	srli	a4,a3,1
	.loc 1 196 61
	lbu	a3,1(a5)
	.loc 1 195 37 discriminator 1
	addi	a5,a5,1
.LVL198:
	.loc 1 196 50
	slli	a2,a3,7
	or	a4,a4,a2
	.loc 1 196 22
	sb	a4,-1(a5)
	.loc 1 195 71 is_stmt 1 discriminator 3
.LVL199:
	.loc 1 195 37 discriminator 1
	bne	a1,a5,.L144
.LBE313:
	.loc 1 198 2
	.loc 1 198 31 is_stmt 0
	lbu	a5,259(s8)
	srli	a5,a5,1
	sb	a5,259(s8)
.LVL200:
	.loc 1 199 1
	j	.L136
.LVL201:
.L175:
.LBE312:
.LBE311:
.LBB314:
.LBB298:
	.loc 1 21 8 is_stmt 1
	.loc 1 21 16 is_stmt 0
	lbu	a5,4(s5)
.LVL202:
	.loc 1 21 8
	bne	a5,zero,.L145
.LVL203:
.LBE298:
.LBE314:
	.loc 1 242 2 is_stmt 1
.LBB315:
.LBB316:
	.loc 1 106 2
	.loc 1 106 10 is_stmt 0
	sb	zero,0(s5)
.LVL204:
.LBE316:
.LBE315:
	.loc 1 243 2 is_stmt 1
.LBB317:
.LBB318:
	.loc 1 106 2
	.loc 1 106 10 is_stmt 0
	sb	zero,0(s8)
.LVL205:
.LBE318:
.LBE317:
	.loc 1 244 2 is_stmt 1
.LBB319:
.LBB320:
	.loc 1 106 2
	.loc 1 106 10 is_stmt 0
	sb	zero,0(s7)
.LVL206:
.LBE320:
.LBE319:
	.loc 1 245 1
	lw	ra,44(sp)
	.cfi_remember_state
	.cfi_restore 1
	lw	s0,40(sp)
	.cfi_restore 8
	lw	s1,36(sp)
	.cfi_restore 9
	lw	s2,32(sp)
	.cfi_restore 18
	lw	s3,28(sp)
	.cfi_restore 19
.LVL207:
	lw	s4,24(sp)
	.cfi_restore 20
.LVL208:
	lw	s5,20(sp)
	.cfi_restore 21
.LVL209:
	lw	s6,16(sp)
	.cfi_restore 22
	lw	s7,12(sp)
	.cfi_restore 23
.LVL210:
	lw	s8,8(sp)
	.cfi_restore 24
.LVL211:
	lw	s9,4(sp)
	.cfi_restore 25
.LVL212:
	lw	s10,0(sp)
	.cfi_restore 26
.LVL213:
	addi	sp,sp,48
	.cfi_def_cfa_offset 0
	jr	ra
.LVL214:
.L173:
	.cfi_restore_state
.LBB321:
.LBB257:
.LBB256:
	.loc 1 76 4 is_stmt 1
	.loc 1 76 22 is_stmt 0
	li	a5,1
	sb	a5,0(s7)
	.loc 1 77 4 is_stmt 1
	.loc 1 77 11 is_stmt 0
	j	.L123
.LVL215:
.L172:
.LBE256:
.LBE257:
.LBE321:
.LBB322:
.LBB251:
.LBB250:
	.loc 1 76 4 is_stmt 1
	.loc 1 76 22 is_stmt 0
	li	a5,1
	sb	a5,0(s8)
	.loc 1 77 4 is_stmt 1
	.loc 1 77 11 is_stmt 0
	j	.L120
.LVL216:
.L171:
.LBE250:
.LBE251:
.LBE322:
.LBB323:
.LBB245:
.LBB244:
	.loc 1 76 4 is_stmt 1
	.loc 1 76 22 is_stmt 0
	li	a5,1
	sb	a5,0(s5)
	.loc 1 77 4 is_stmt 1
	.loc 1 77 11 is_stmt 0
	j	.L117
.LBE244:
.LBE245:
.LBE323:
	.cfi_endproc
.LFE16:
	.size	numeri_div, .-numeri_div
	.align	1
	.globl	numeri_mod
	.type	numeri_mod, @function
numeri_mod:
.LFB19:
	.loc 1 272 50 is_stmt 1
	.cfi_startproc
.LVL217:
	addi	sp,sp,-32
	.cfi_def_cfa_offset 32
.LBB345:
.LBB346:
	.loc 1 110 12 is_stmt 0
	addi	a4,a2,4
.LBE346:
.LBE345:
	.loc 1 272 50
	sw	s0,24(sp)
	sw	s2,16(sp)
	sw	s4,8(sp)
	sw	ra,28(sp)
	sw	s3,12(sp)
	.cfi_offset 8, -8
	.cfi_offset 18, -16
	.cfi_offset 20, -24
	.cfi_offset 1, -4
	.cfi_offset 19, -20
	mv	s2,a2
	mv	s0,a0
	mv	s4,a1
	.loc 1 274 2 is_stmt 1
.LVL218:
.LBB350:
.LBB349:
	.loc 1 110 2
	.loc 1 112 2
.LBB347:
	.loc 1 112 7
	.loc 1 112 23 discriminator 1
	addi	a3,a2,260
.LBE347:
	.loc 1 110 12 is_stmt 0
	mv	a5,a4
.LVL219:
.L178:
.LBB348:
	.loc 1 113 3 is_stmt 1
	.loc 1 113 14 is_stmt 0
	sw	zero,0(a5)
	.loc 1 114 3 is_stmt 1
	.loc 1 114 12 is_stmt 0
	addi	a5,a5,4
.LVL220:
	.loc 1 112 61 is_stmt 1 discriminator 3
	.loc 1 112 23 discriminator 1
	bne	a5,a3,.L178
	addi	a3,s0,259
	addi	a2,s4,259
.LVL221:
	addi	a5,s0,4
.LVL222:
	j	.L182
.LVL223:
.L179:
.LBE348:
.LBE349:
.LBE350:
.LBB351:
.LBB352:
	.loc 1 52 9 is_stmt 0
	beq	a3,a5,.L192
.LVL224:
.L182:
	.loc 1 53 3 is_stmt 1
	.loc 1 56 3
	.loc 1 52 9
	.loc 1 53 13 is_stmt 0
	lbu	a6,0(a3)
	.loc 1 53 35
	lbu	a0,0(a2)
	.loc 1 52 9
	addi	a3,a3,-1
.LVL225:
	addi	a2,a2,-1
	.loc 1 53 5
	beq	a6,a0,.L179
	.loc 1 54 4 is_stmt 1
	.loc 1 54 55 is_stmt 0
	bleu	a6,a0,.L201
.L192:
.LBE352:
.LBE351:
.LBB354:
.LBB355:
.LBB356:
	.loc 1 74 39 discriminator 1
	li	a4,-2147475456
	sw	s1,20(sp)
	.cfi_offset 9, -12
.LBE356:
.LBE355:
.LBE354:
.LBB361:
.LBB353:
	li	s3,-2147479552
.LBE353:
.LBE361:
.LBB362:
.LBB359:
.LBB357:
	.loc 1 74 39 discriminator 1
	addi	a4,a4,64
.LVL226:
.L187:
	.loc 1 75 3 is_stmt 1
	.loc 1 79 3
	.loc 1 75 6 is_stmt 0
	lbu	a5,0(s3)
	beq	a5,zero,.L202
	.loc 1 79 14
	addi	s3,s3,260
.LVL227:
	.loc 1 74 62 is_stmt 1 discriminator 2
	.loc 1 74 39 discriminator 1
	bne	s3,a4,.L187
.LBE357:
	.loc 1 81 9 is_stmt 0
	li	s3,0
.LVL228:
.L186:
.LBE359:
.LBE362:
	.loc 1 283 2 is_stmt 1
.LBB363:
.LBB364:
	.loc 1 73 2
	.loc 1 74 2
.LBB365:
	.loc 1 74 7
	.loc 1 74 39 discriminator 1
	li	a4,-2147475456
.LBE365:
	.loc 1 73 10 is_stmt 0
	li	s1,-2147479552
.LBB366:
	.loc 1 74 39 discriminator 1
	addi	a4,a4,64
.LVL229:
.L190:
	.loc 1 75 3 is_stmt 1
	.loc 1 79 3
	.loc 1 75 6 is_stmt 0
	lbu	a5,0(s1)
	beq	a5,zero,.L203
	.loc 1 79 14
	addi	s1,s1,260
.LVL230:
	.loc 1 74 62 is_stmt 1 discriminator 2
	.loc 1 74 39 discriminator 1
	bne	s1,a4,.L190
.LBE366:
	.loc 1 81 9 is_stmt 0
	li	s1,0
.LVL231:
.L189:
.LBE364:
.LBE363:
	.loc 1 285 2 is_stmt 1
	mv	a2,s3
	mv	a1,s4
.LVL232:
	mv	a0,s0
	call	numeri_div
.LVL233:
	.loc 1 286 2
	mv	a2,s1
	mv	a1,s4
	mv	a0,s3
	call	numeri_mul
.LVL234:
	.loc 1 287 2
.LBB369:
.LBB370:
	.loc 1 144 2
	.loc 1 145 2
	.loc 1 146 2
	.loc 1 148 2
.LBB371:
	.loc 1 148 7
	.loc 1 148 37 discriminator 1
.LBE371:
.LBE370:
.LBE369:
	.loc 1 286 2 is_stmt 0
	li	a4,4
.LBB374:
.LBB373:
	.loc 1 146 11
	li	a3,0
.LBB372:
	.loc 1 148 37 discriminator 1
	li	a2,260
.LVL235:
.L191:
	.loc 1 149 3 is_stmt 1
	.loc 1 150 30 is_stmt 0
	add	a5,s1,a4
	.loc 1 150 41
	lbu	a1,0(a5)
	.loc 1 149 30
	add	a5,s0,a4
	lbu	a5,0(a5)
.LVL236:
	.loc 1 150 3 is_stmt 1
	.loc 1 150 41 is_stmt 0
	add	a3,a3,a1
.LVL237:
	.loc 1 151 3 is_stmt 1
	.loc 1 151 21 is_stmt 0
	add	a1,s2,a4
	.loc 1 151 40
	sub	a6,a5,a3
	.loc 1 152 20
	addi	a5,a5,256
.LVL238:
	sub	a5,a5,a3
.LVL239:
	.loc 1 151 21
	sb	a6,0(a1)
.LVL240:
	.loc 1 152 3 is_stmt 1
	.loc 1 148 37 is_stmt 0 discriminator 1
	addi	a4,a4,1
.LVL241:
	.loc 1 152 10
	slti	a3,a5,256
.LVL242:
	.loc 1 148 65 is_stmt 1 discriminator 3
	.loc 1 148 37 discriminator 1
	bne	a4,a2,.L191
.LBE372:
	.loc 1 155 2
.LVL243:
.LBE373:
.LBE374:
	.loc 1 290 2
.LBB375:
.LBB376:
	.loc 1 106 2
	.loc 1 106 10 is_stmt 0
	sb	zero,0(s3)
.LVL244:
.LBE376:
.LBE375:
	.loc 1 291 2 is_stmt 1
.LBB377:
.LBB378:
	.loc 1 106 2
	.loc 1 106 10 is_stmt 0
	sb	zero,0(s1)
.LVL245:
.LBE378:
.LBE377:
	.loc 1 292 1
	lw	ra,28(sp)
	.cfi_restore 1
	lw	s0,24(sp)
	.cfi_restore 8
.LVL246:
.LBB380:
.LBB379:
	.loc 1 106 10
	lw	s1,20(sp)
	.cfi_restore 9
.LVL247:
.LBE379:
.LBE380:
	.loc 1 292 1
	lw	s2,16(sp)
	.cfi_restore 18
.LVL248:
	lw	s3,12(sp)
	.cfi_restore 19
.LVL249:
	lw	s4,8(sp)
	.cfi_restore 20
.LVL250:
	addi	sp,sp,32
	.cfi_def_cfa_offset 0
	jr	ra
.LVL251:
.L201:
	.cfi_def_cfa_offset 32
	.cfi_offset 1, -4
	.cfi_offset 8, -8
	.cfi_offset 18, -16
	.cfi_offset 19, -20
	.cfi_offset 20, -24
	.loc 1 277 3 is_stmt 1
.LBB381:
.LBB382:
	.loc 1 98 2
	.loc 1 99 2
	.loc 1 100 2
.LBB383:
	.loc 1 100 7
	.loc 1 100 37 discriminator 1
	addi	s0,s0,260
.LVL252:
.L183:
	.loc 1 101 3
	.loc 1 101 22 is_stmt 0
	lw	a3,0(a5)
	.loc 1 100 37 discriminator 1
	addi	a5,a5,4
	addi	a4,a4,4
	.loc 1 101 17
	sw	a3,-4(a4)
	.loc 1 100 82 is_stmt 1 discriminator 3
	.loc 1 100 37 discriminator 1
	bne	s0,a5,.L183
.LBE383:
.LBE382:
.LBE381:
	.loc 1 292 1 is_stmt 0
	lw	ra,28(sp)
	.cfi_restore 1
	lw	s0,24(sp)
	.cfi_restore 8
.LVL253:
	lw	s2,16(sp)
	.cfi_restore 18
.LVL254:
	lw	s3,12(sp)
	.cfi_restore 19
	lw	s4,8(sp)
	.cfi_restore 20
	addi	sp,sp,32
	.cfi_def_cfa_offset 0
	jr	ra
.LVL255:
.L203:
	.cfi_def_cfa_offset 32
	.cfi_offset 1, -4
	.cfi_offset 8, -8
	.cfi_offset 9, -12
	.cfi_offset 18, -16
	.cfi_offset 19, -20
	.cfi_offset 20, -24
.LBB384:
.LBB368:
.LBB367:
	.loc 1 76 4 is_stmt 1
	.loc 1 76 22 is_stmt 0
	li	a5,1
	sb	a5,0(s1)
	.loc 1 77 4 is_stmt 1
	.loc 1 77 11 is_stmt 0
	j	.L189
.LVL256:
.L202:
.LBE367:
.LBE368:
.LBE384:
.LBB385:
.LBB360:
.LBB358:
	.loc 1 76 4 is_stmt 1
	.loc 1 76 22 is_stmt 0
	li	a5,1
	sb	a5,0(s3)
	.loc 1 77 4 is_stmt 1
	.loc 1 77 11 is_stmt 0
	j	.L186
.LBE358:
.LBE360:
.LBE385:
	.cfi_endproc
.LFE19:
	.size	numeri_mod, .-numeri_mod
	.align	1
	.globl	numeri_pow
	.type	numeri_pow, @function
numeri_pow:
.LFB20:
	.loc 1 294 62 is_stmt 1
	.cfi_startproc
.LVL257:
	.loc 1 296 2
	.loc 1 294 62 is_stmt 0
	addi	sp,sp,-32
	.cfi_def_cfa_offset 32
	sw	s3,12(sp)
	sw	s4,8(sp)
	sw	s5,4(sp)
	sw	ra,28(sp)
	sw	s0,24(sp)
	sw	s1,20(sp)
	sw	s6,0(sp)
	.cfi_offset 19, -20
	.cfi_offset 20, -24
	.cfi_offset 21, -28
	.cfi_offset 1, -4
	.cfi_offset 8, -8
	.cfi_offset 9, -12
	.cfi_offset 22, -32
	mv	s4,a3
.LVL258:
.LBB402:
.LBB403:
	.loc 1 110 2 is_stmt 1
.LBE403:
.LBE402:
	.loc 1 294 62 is_stmt 0
	mv	s5,a0
	mv	s3,a2
.LBB406:
.LBB405:
	.loc 1 110 12
	addi	a5,a3,4
.LVL259:
	.loc 1 112 2 is_stmt 1
.LBB404:
	.loc 1 112 7
	.loc 1 112 23 discriminator 1
	addi	a4,a3,260
.LVL260:
.L205:
	.loc 1 113 3
	.loc 1 113 14 is_stmt 0
	sw	zero,0(a5)
	.loc 1 114 3 is_stmt 1
	.loc 1 114 12 is_stmt 0
	addi	a5,a5,4
.LVL261:
	.loc 1 112 61 is_stmt 1 discriminator 3
	.loc 1 112 23 discriminator 1
	bne	a5,a4,.L205
.LVL262:
.LBE404:
.LBE405:
.LBE406:
	.loc 1 298 2
	.loc 1 299 2
.LBB407:
.LBB408:
.LBB409:
	.loc 1 74 39 is_stmt 0 discriminator 1
	li	a4,-2147475456
.LBE409:
.LBE408:
.LBE407:
	.loc 1 299 11
	addi	s6,a1,-1
.LVL263:
	.loc 1 301 2 is_stmt 1
.LBB415:
.LBB413:
	.loc 1 73 2
	.loc 1 74 2
.LBB410:
	.loc 1 74 7
	.loc 1 74 39 discriminator 1
.LBE410:
	.loc 1 73 10 is_stmt 0
	li	s1,-2147479552
.LBB411:
	.loc 1 74 39 discriminator 1
	addi	a4,a4,64
.LVL264:
.L208:
	.loc 1 75 3 is_stmt 1
	.loc 1 79 3
	.loc 1 75 6 is_stmt 0
	lbu	a5,0(s1)
	beq	a5,zero,.L221
	.loc 1 79 14
	addi	s1,s1,260
.LVL265:
	.loc 1 74 62 is_stmt 1 discriminator 2
	.loc 1 74 39 discriminator 1
	bne	s1,a4,.L208
.LBE411:
	.loc 1 81 9 is_stmt 0
	li	s1,0
.LVL266:
.L207:
.LBE413:
.LBE415:
	.loc 1 302 2 is_stmt 1
.LBB416:
.LBB417:
	.loc 1 73 2
	.loc 1 74 2
.LBB418:
	.loc 1 74 7
	.loc 1 74 39 discriminator 1
	li	a4,-2147475456
.LBE418:
	.loc 1 73 10 is_stmt 0
	li	s0,-2147479552
.LBB419:
	.loc 1 74 39 discriminator 1
	addi	a4,a4,64
.LVL267:
.L211:
	.loc 1 75 3 is_stmt 1
	.loc 1 79 3
	.loc 1 75 6 is_stmt 0
	lbu	a5,0(s0)
	beq	a5,zero,.L222
	.loc 1 79 14
	addi	s0,s0,260
.LVL268:
	.loc 1 74 62 is_stmt 1 discriminator 2
	.loc 1 74 39 discriminator 1
	bne	s0,a4,.L211
.LBE419:
	.loc 1 81 9 is_stmt 0
	li	s0,0
.LVL269:
.L210:
.LBE417:
.LBE416:
	.loc 1 305 2 is_stmt 1
.LBB422:
.LBB423:
	.loc 1 98 2
	.loc 1 99 2
	.loc 1 100 2
.LBB424:
	.loc 1 100 7
	.loc 1 100 37 discriminator 1
	addi	a5,s5,4
.LVL270:
	addi	a4,s0,4
.LVL271:
	addi	a7,s5,260
.LVL272:
.L212:
	.loc 1 101 3
	.loc 1 101 22 is_stmt 0
	lw	a6,0(a5)
	.loc 1 100 37 discriminator 1
	addi	a5,a5,4
	addi	a4,a4,4
	.loc 1 101 17
	sw	a6,-4(a4)
	.loc 1 100 82 is_stmt 1 discriminator 3
	.loc 1 100 37 discriminator 1
	bne	a5,a7,.L212
.LVL273:
.LBE424:
.LBE423:
.LBE422:
	.loc 1 306 16
	li	a5,1
	beq	s6,a5,.L213
	sw	s2,16(sp)
	.cfi_offset 18, -16
	.loc 1 298 11 is_stmt 0
	li	s2,1
.LVL274:
.L214:
	.loc 1 307 3 is_stmt 1
	mv	a2,s1
	mv	a1,s0
	mv	a0,s0
	call	numeri_mul
.LVL275:
	.loc 1 308 3
	mv	a2,s0
	mv	a1,s3
	mv	a0,s1
	.loc 1 309 10 is_stmt 0
	slli	s2,s2,1
.LVL276:
	.loc 1 308 3
	call	numeri_mod
.LVL277:
	.loc 1 309 3 is_stmt 1
	.loc 1 306 16
	bne	s6,s2,.L214
	lw	s2,16(sp)
	.cfi_restore 18
.LVL278:
.L213:
	.loc 1 313 2
	mv	a2,s1
	mv	a1,s5
	mv	a0,s0
	call	numeri_mul
.LVL279:
	.loc 1 314 2
	mv	a2,s4
	mv	a1,s3
	mv	a0,s1
	call	numeri_mod
.LVL280:
	.loc 1 317 2
.LBB425:
.LBB426:
	.loc 1 106 2
	.loc 1 106 10 is_stmt 0
	sb	zero,0(s0)
.LVL281:
.LBE426:
.LBE425:
	.loc 1 318 2 is_stmt 1
.LBB427:
.LBB428:
	.loc 1 106 2
	.loc 1 106 10 is_stmt 0
	sb	zero,0(s1)
.LVL282:
.LBE428:
.LBE427:
	.loc 1 319 1
	lw	ra,28(sp)
	.cfi_remember_state
	.cfi_restore 1
	lw	s0,24(sp)
	.cfi_restore 8
.LVL283:
	lw	s1,20(sp)
	.cfi_restore 9
.LVL284:
	lw	s3,12(sp)
	.cfi_restore 19
.LVL285:
	lw	s4,8(sp)
	.cfi_restore 20
.LVL286:
	lw	s5,4(sp)
	.cfi_restore 21
.LVL287:
	lw	s6,0(sp)
	.cfi_restore 22
.LVL288:
	addi	sp,sp,32
	.cfi_def_cfa_offset 0
	jr	ra
.LVL289:
.L222:
	.cfi_restore_state
.LBB429:
.LBB421:
.LBB420:
	.loc 1 76 4 is_stmt 1
	.loc 1 76 22 is_stmt 0
	li	a5,1
	sb	a5,0(s0)
	.loc 1 77 4 is_stmt 1
	.loc 1 77 11 is_stmt 0
	j	.L210
.LVL290:
.L221:
.LBE420:
.LBE421:
.LBE429:
.LBB430:
.LBB414:
.LBB412:
	.loc 1 76 4 is_stmt 1
	.loc 1 76 22 is_stmt 0
	li	a5,1
	sb	a5,0(s1)
	.loc 1 77 4 is_stmt 1
	.loc 1 77 11 is_stmt 0
	j	.L207
.LBE412:
.LBE414:
.LBE430:
	.cfi_endproc
.LFE20:
	.size	numeri_pow, .-numeri_pow
.Letext0:
	.file 2 "inc/types.h"
	.file 3 "inc/numeri.h"